; Function Attrs: mustprogress uwtable
define void @_ZN5Yosys10ScriptPass11help_scriptEv(ptr noundef nonnull align 8 dereferenceable(184) %0) local_unnamed_addr #4 align 2 personality ptr @__gxx_personality_v0 {
  %2 = load ptr, ptr %0, align 8, !tbaa !28
  %3 = getelementptr inbounds nuw i8, ptr %2, i64 24
  %4 = load ptr, ptr %3, align 8
  tail call void %4(ptr noundef nonnull align 8 dereferenceable(104) %0)
  %5 = getelementptr inbounds nuw i8, ptr %0, i64 105
  store i8 1, ptr %5, align 1, !tbaa !144
  %6 = getelementptr inbounds nuw i8, ptr %0, i64 112
  store ptr null, ptr %6, align 8, !tbaa !140
  %7 = getelementptr inbounds nuw i8, ptr %0, i64 104
  store i8 1, ptr %7, align 8, !tbaa !143
  %8 = getelementptr inbounds nuw i8, ptr %0, i64 120
  %9 = getelementptr inbounds nuw i8, ptr %0, i64 128
  store i64 0, ptr %9, align 8, !tbaa !23
  %10 = load ptr, ptr %8, align 8, !tbaa !19
  store i8 0, ptr %10, align 1, !tbaa !24
  %11 = getelementptr inbounds nuw i8, ptr %0, i64 152
  %12 = getelementptr inbounds nuw i8, ptr %0, i64 160
  store i64 0, ptr %12, align 8, !tbaa !23
  %13 = load ptr, ptr %11, align 8, !tbaa !19
  store i8 0, ptr %13, align 1, !tbaa !24
  %14 = load ptr, ptr %0, align 8, !tbaa !28
  %15 = getelementptr inbounds nuw i8, ptr %14, i64 72
  %16 = load ptr, ptr %15, align 8
  tail call void %16(ptr noundef nonnull align 8 dereferenceable(184) %0)
  ret void
}